; ModuleID = 'source-C-CXX/4/122.c'
source_filename = "source-C-CXX/4/122.c"
target datalayout = "e-m:e-p270:32:32-p271:32:32-p272:64:64-i64:64-f80:128-n8:16:32:64-S128"
target triple = "x86_64-pc-linux-gnu"

@.str = private unnamed_addr constant [6 x i8] c"error\00", align 1
@.str.1 = private unnamed_addr constant [4 x i8] c"yes\00", align 1
@.str.2 = private unnamed_addr constant [3 x i8] c"no\00", align 1

; Function Attrs: nounwind sspstrong uwtable
define dso_local i32 @main() local_unnamed_addr #0 {
  %1 = alloca [10 x i8], align 1
  %2 = alloca [500 x i8], align 16
  %3 = alloca [500 x i8], align 16
  %4 = getelementptr inbounds [10 x i8], [10 x i8]* %1, i64 0, i64 0
  call void @llvm.lifetime.start.p0i8(i64 10, i8* nonnull %4) #6
  %5 = getelementptr inbounds [500 x i8], [500 x i8]* %2, i64 0, i64 0
  call void @llvm.lifetime.start.p0i8(i64 500, i8* nonnull %5) #6
  %6 = getelementptr inbounds [500 x i8], [500 x i8]* %3, i64 0, i64 0
  call void @llvm.lifetime.start.p0i8(i64 500, i8* nonnull %6) #6
  %7 = call i32 (i8*, ...) bitcast (i32 (...)* @gets to i32 (i8*, ...)*)(i8* nonnull %4) #6
  %8 = call i64 @strtol(i8* nocapture nonnull %4, i8** null, i32 10) #6
  %9 = trunc i64 %8 to i32
  %10 = sitofp i32 %9 to double
  %11 = call i32 (i8*, ...) bitcast (i32 (...)* @gets to i32 (i8*, ...)*)(i8* nonnull %5) #6
  %12 = call i32 (i8*, ...) bitcast (i32 (...)* @gets to i32 (i8*, ...)*)(i8* nonnull %6) #6
  %13 = call i64 @strlen(i8* noundef nonnull %5) #7
  %14 = trunc i64 %13 to i32
  %15 = call i64 @strlen(i8* noundef nonnull %6) #7
  %16 = icmp eq i64 %13, %15
  br i1 %16, label %17, label %56

17:                                               ; preds = %0
  %18 = load i8, i8* %5, align 16, !tbaa !5
  %19 = icmp eq i8 %18, 0
  br i1 %19, label %50, label %20

20:                                               ; preds = %17, %38
  %21 = phi i64 [ %39, %38 ], [ 0, %17 ]
  %22 = phi i8 [ %40, %38 ], [ %18, %17 ]
  %23 = phi i32 [ %29, %38 ], [ 0, %17 ]
  %24 = phi i32 [ %41, %38 ], [ 0, %17 ]
  %25 = getelementptr inbounds [500 x i8], [500 x i8]* %3, i64 0, i64 %21
  %26 = load i8, i8* %25, align 1, !tbaa !5
  %27 = icmp eq i8 %22, %26
  %28 = zext i1 %27 to i32
  %29 = add nuw nsw i32 %23, %28
  switch i8 %22, label %30 [
    i8 65, label %31
    i8 84, label %31
    i8 67, label %31
    i8 71, label %31
  ]

30:                                               ; preds = %20
  br label %31

31:                                               ; preds = %20, %20, %20, %20, %30
  %32 = phi i32 [ 1, %30 ], [ %24, %20 ], [ %24, %20 ], [ %24, %20 ], [ %24, %20 ]
  switch i8 %26, label %42 [
    i8 65, label %33
    i8 84, label %33
    i8 67, label %33
    i8 71, label %33
  ]

33:                                               ; preds = %31, %31, %31, %31
  %34 = add nuw i64 %21, 1
  %35 = getelementptr inbounds [500 x i8], [500 x i8]* %2, i64 0, i64 %34
  %36 = load i8, i8* %35, align 1, !tbaa !5
  %37 = icmp eq i8 %36, 0
  br i1 %37, label %47, label %38

38:                                               ; preds = %33, %42
  %39 = phi i64 [ %34, %33 ], [ %43, %42 ]
  %40 = phi i8 [ %36, %33 ], [ %45, %42 ]
  %41 = phi i32 [ %32, %33 ], [ 1, %42 ]
  br label %20, !llvm.loop !8

42:                                               ; preds = %31
  %43 = add nuw i64 %21, 1
  %44 = getelementptr inbounds [500 x i8], [500 x i8]* %2, i64 0, i64 %43
  %45 = load i8, i8* %44, align 1, !tbaa !5
  %46 = icmp eq i8 %45, 0
  br i1 %46, label %56, label %38

47:                                               ; preds = %33
  %48 = sitofp i32 %29 to double
  %49 = icmp eq i32 %32, 1
  br i1 %49, label %56, label %50

50:                                               ; preds = %17, %47
  %51 = phi double [ %48, %47 ], [ 0.000000e+00, %17 ]
  %52 = sitofp i32 %14 to double
  %53 = fdiv double %51, %52
  %54 = fcmp ogt double %53, %10
  %55 = select i1 %54, i8* getelementptr inbounds ([4 x i8], [4 x i8]* @.str.1, i64 0, i64 0), i8* getelementptr inbounds ([3 x i8], [3 x i8]* @.str.2, i64 0, i64 0)
  br label %56

56:                                               ; preds = %42, %50, %47, %0
  %57 = phi i8* [ getelementptr inbounds ([6 x i8], [6 x i8]* @.str, i64 0, i64 0), %0 ], [ getelementptr inbounds ([6 x i8], [6 x i8]* @.str, i64 0, i64 0), %47 ], [ %55, %50 ], [ getelementptr inbounds ([6 x i8], [6 x i8]* @.str, i64 0, i64 0), %42 ]
  %58 = call i32 (i8*, ...) @printf(i8* nonnull dereferenceable(1) %57)
  call void @llvm.lifetime.end.p0i8(i64 500, i8* nonnull %6) #6
  call void @llvm.lifetime.end.p0i8(i64 500, i8* nonnull %5) #6
  call void @llvm.lifetime.end.p0i8(i64 10, i8* nonnull %4) #6
  ret i32 0
}

; Function Attrs: argmemonly mustprogress nofree nosync nounwind willreturn
declare void @llvm.lifetime.start.p0i8(i64 immarg, i8* nocapture) #1

declare i32 @gets(...) local_unnamed_addr #2

; Function Attrs: argmemonly mustprogress nofree nounwind readonly willreturn
declare i64 @strlen(i8* nocapture) local_unnamed_addr #3

; Function Attrs: argmemonly mustprogress nofree nosync nounwind willreturn
declare void @llvm.lifetime.end.p0i8(i64 immarg, i8* nocapture) #1

; Function Attrs: nofree nounwind
declare noundef i32 @printf(i8* nocapture noundef readonly, ...) local_unnamed_addr #4

; Function Attrs: mustprogress nofree nounwind willreturn
declare i64 @strtol(i8* readonly, i8** nocapture, i32) local_unnamed_addr #5


!llvm.module.flags = !{!0, !1, !2, !3}
!llvm.ident = !{!4}

!0 = !{i32 1, !"wchar_size", i32 4}
!1 = !{i32 7, !"PIC Level", i32 2}
!2 = !{i32 7, !"PIE Level", i32 2}
!3 = !{i32 7, !"uwtable", i32 1}
!4 = !{!"clang version 13.0.0"}
!5 = !{!6, !6, i64 0}
!6 = !{!"omnipotent char", !7, i64 0}
!7 = !{!"Simple C/C++ TBAA"}
!8 = distinct !{!8, !9}
!9 = !{!"llvm.loop.mustprogress"}
